; Function Attrs: mustprogress nofree norecurse nosync nounwind willreturn memory(read, inaccessiblemem: none) uwtable
define hidden noundef ptr @_ZNK5frame24interpreter_frame_tos_atEi(ptr nocapture noundef nonnull readonly align 8 dereferenceable(56) %0, i32 noundef %1) local_unnamed_addr #4 align 2 {
  %3 = getelementptr inbounds i8, ptr %0, i64 40
  %4 = load ptr, ptr %3, align 8
  %5 = getelementptr inbounds i8, ptr %4, i64 -16
  %6 = load i64, ptr %5, align 8
  %.not.i.i = icmp eq i64 %6, 0
  %7 = getelementptr inbounds i64, ptr %4, i64 %6
  %8 = icmp eq ptr %4, null
  %9 = or i1 %8, %.not.i.i
  %10 = load ptr, ptr %0, align 8
  %spec.select.i = select i1 %9, ptr %10, ptr %7
  %11 = sext i32 %1 to i64
  %12 = getelementptr inbounds i64, ptr %spec.select.i, i64 %11
  ret ptr %12
}